target datalayout = "e-m:e-p270:32:32-p271:32:32-p272:64:64-i64:64-i128:128-f80:128-n8:16:32:64-S128"
target triple = "x86_64-pc-linux-gnu"

@debuglevel = internal global i32 0, align 4
@.str.2 = private unnamed_addr constant [2 x i8] c"\0A\00", align 1
@stdout = external global ptr, align 8
@.str.19 = private unnamed_addr constant [27 x i8] c"oid_string2subid: str='%s'\00", align 1
@.str.29 = private unnamed_addr constant [20 x i8] c"check_num_oid: '%s'\00", align 1
@.str.30 = private unnamed_addr constant [24 x i8] c"\09check_num_oid: '%c' %u\00", align 1

; Function Attrs: null_pointer_is_valid sspstrong uwtable
define internal i32 @check_num_oid(ptr noundef %0) #0 {
  %2 = alloca i32, align 4
  %3 = alloca ptr, align 8
  %4 = alloca ptr, align 8
  %5 = alloca i8, align 1
  %6 = alloca i32, align 4
  %7 = alloca i32, align 4
  store ptr %0, ptr %3, align 8
  call void @llvm.lifetime.start.p0(i64 8, ptr %4) #6
  %8 = load ptr, ptr %3, align 8
  store ptr %8, ptr %4, align 8
  call void @llvm.lifetime.start.p0(i64 1, ptr %5) #6
  store i8 46, ptr %5, align 1
  call void @llvm.lifetime.start.p0(i64 4, ptr %6) #6
  store i32 0, ptr %6, align 4
  br label %9

9:                                                ; preds = %1
  %10 = load i32, ptr @debuglevel, align 4
  %11 = icmp sge i32 %10, 8
  br i1 %11, label %12, label %18

12:                                               ; preds = %9
  %13 = load ptr, ptr %3, align 8
  %14 = call i32 (i32, ptr, ...) @__printf_chk(i32 noundef 2, ptr noundef @.str.29, ptr noundef %13)
  %15 = call i32 (i32, ptr, ...) @__printf_chk(i32 noundef 2, ptr noundef @.str.2)
  %16 = load ptr, ptr @stdout, align 8
  %17 = call i32 @fflush(ptr noundef %16)
  br label %18

18:                                               ; preds = %12, %9
  br label %19

19:                                               ; preds = %18
  br label %20

20:                                               ; preds = %19
  %21 = load ptr, ptr %4, align 8
  %22 = icmp ne ptr %21, null
  br i1 %22, label %24, label %23

23:                                               ; preds = %20
  store i32 0, ptr %2, align 4
  store i32 1, ptr %7, align 4
  br label %62

24:                                               ; preds = %20
  br label %25

25:                                               ; preds = %55, %24
  br label %26

26:                                               ; preds = %25
  %27 = load i32, ptr @debuglevel, align 4
  %28 = icmp sge i32 %27, 9
  br i1 %28, label %29, label %38

29:                                               ; preds = %26
  %30 = load ptr, ptr %4, align 8
  %31 = load i8, ptr %30, align 1
  %32 = sext i8 %31 to i32
  %33 = load i32, ptr %6, align 4
  %34 = call i32 (i32, ptr, ...) @__printf_chk(i32 noundef 2, ptr noundef @.str.30, i32 noundef %32, i32 noundef %33)
  %35 = call i32 (i32, ptr, ...) @__printf_chk(i32 noundef 2, ptr noundef @.str.2)
  %36 = load ptr, ptr @stdout, align 8
  %37 = call i32 @fflush(ptr noundef %36)
  br label %38

38:                                               ; preds = %29, %26
  br label %39

39:                                               ; preds = %38
  br label %40

40:                                               ; preds = %39
  %41 = load ptr, ptr %4, align 8
  %42 = load i8, ptr %41, align 1
  %43 = sext i8 %42 to i32
  switch i32 %43, label %53 [
    i32 46, label %44
    i32 0, label %44
    i32 49, label %52
    i32 50, label %52
    i32 51, label %52
    i32 52, label %52
    i32 53, label %52
    i32 54, label %52
    i32 55, label %52
    i32 56, label %52
    i32 57, label %52
    i32 48, label %52
  ]

44:                                               ; preds = %40, %40
  %45 = load i32, ptr %6, align 4
  %46 = add i32 %45, 1
  store i32 %46, ptr %6, align 4
  %47 = load i8, ptr %5, align 1
  %48 = sext i8 %47 to i32
  %49 = icmp eq i32 %48, 46
  br i1 %49, label %50, label %51

50:                                               ; preds = %44
  store i32 0, ptr %2, align 4
  store i32 1, ptr %7, align 4
  br label %62

51:                                               ; preds = %44
  br label %54

52:                                               ; preds = %40, %40, %40, %40, %40, %40, %40, %40, %40, %40
  br label %55

53:                                               ; preds = %40
  store i32 0, ptr %2, align 4
  store i32 1, ptr %7, align 4
  br label %62

54:                                               ; preds = %51
  br label %55

55:                                               ; preds = %54, %52
  %56 = load ptr, ptr %4, align 8
  %57 = getelementptr i8, ptr %56, i32 1
  store ptr %57, ptr %4, align 8
  %58 = load i8, ptr %56, align 1
  store i8 %58, ptr %5, align 1
  %59 = icmp ne i8 %58, 0
  br i1 %59, label %25, label %60, !llvm.loop !12

60:                                               ; preds = %55
  %61 = load i32, ptr %6, align 4
  store i32 %61, ptr %2, align 4
  store i32 1, ptr %7, align 4
  br label %62

62:                                               ; preds = %60, %53, %50, %23
  call void @llvm.lifetime.end.p0(i64 4, ptr %6) #6
  call void @llvm.lifetime.end.p0(i64 1, ptr %5) #6
  call void @llvm.lifetime.end.p0(i64 8, ptr %4) #6
  %63 = load i32, ptr %2, align 4
  ret i32 %63
}

; Function Attrs: null_pointer_is_valid sspstrong uwtable
define i32 @oid_string2subid(ptr noundef %0, ptr noundef %1, ptr noundef %2) #0 {
  %4 = alloca i32, align 4
  %5 = alloca ptr, align 8
  %6 = alloca ptr, align 8
  %7 = alloca ptr, align 8
  %8 = alloca ptr, align 8
  %9 = alloca ptr, align 8
  %10 = alloca ptr, align 8
  %11 = alloca i32, align 4
  %12 = alloca i64, align 8
  %13 = alloca i32, align 4
  store ptr %0, ptr %5, align 8
  store ptr %1, ptr %6, align 8
  store ptr %2, ptr %7, align 8
  call void @llvm.lifetime.start.p0(i64 8, ptr %8) #6
  %14 = load ptr, ptr %6, align 8
  store ptr %14, ptr %8, align 8
  call void @llvm.lifetime.start.p0(i64 8, ptr %9) #6
  call void @llvm.lifetime.start.p0(i64 8, ptr %10) #6
  call void @llvm.lifetime.start.p0(i64 4, ptr %11) #6
  %15 = load ptr, ptr %6, align 8
  %16 = call i32 @check_num_oid(ptr noundef %15)
  store i32 %16, ptr %11, align 4
  call void @llvm.lifetime.start.p0(i64 8, ptr %12) #6
  store i64 0, ptr %12, align 8
  br label %17

17:                                               ; preds = %3
  %18 = load i32, ptr @debuglevel, align 4
  %19 = icmp sge i32 %18, 6
  br i1 %19, label %20, label %26

20:                                               ; preds = %17
  %21 = load ptr, ptr %6, align 8
  %22 = call i32 (i32, ptr, ...) @__printf_chk(i32 noundef 2, ptr noundef @.str.19, ptr noundef %21)
  %23 = call i32 (i32, ptr, ...) @__printf_chk(i32 noundef 2, ptr noundef @.str.2)
  %24 = load ptr, ptr @stdout, align 8
  %25 = call i32 @fflush(ptr noundef %24)
  br label %26

26:                                               ; preds = %20, %17
  br label %27

27:                                               ; preds = %26
  br label %28

28:                                               ; preds = %27
  %29 = load i32, ptr %11, align 4
  %30 = icmp ne i32 %29, 0
  br i1 %30, label %33, label %31

31:                                               ; preds = %28
  %32 = load ptr, ptr %7, align 8
  store ptr null, ptr %32, align 8
  store i32 0, ptr %4, align 4
  store i32 1, ptr %13, align 4
  br label %103

33:                                               ; preds = %28
  %34 = load ptr, ptr %5, align 8
  %35 = load i32, ptr %11, align 4
  %36 = icmp ule i32 %35, 0
  br i1 %36, label %42, label %37

37:                                               ; preds = %33
  %38 = load i32, ptr %11, align 4
  %39 = zext i32 %38 to i64
  %40 = udiv i64 9223372036854775807, %39
  %41 = icmp ugt i64 4, %40
  br i1 %41, label %42, label %43

42:                                               ; preds = %37, %33
  br label %47

43:                                               ; preds = %37
  %44 = load i32, ptr %11, align 4
  %45 = zext i32 %44 to i64
  %46 = mul i64 4, %45
  br label %47

47:                                               ; preds = %43, %42
  %48 = phi i64 [ 0, %42 ], [ %46, %43 ]
  %49 = call noalias ptr @wmem_alloc0(ptr noundef %34, i64 noundef %48) #7
  store ptr %49, ptr %9, align 8
  %50 = load ptr, ptr %7, align 8
  store ptr %49, ptr %50, align 8
  %51 = load ptr, ptr %9, align 8
  %52 = load i32, ptr %11, align 4
  %53 = zext i32 %52 to i64
  %54 = getelementptr i32, ptr %51, i64 %53
  store ptr %54, ptr %10, align 8
  br label %55

55:                                               ; preds = %96, %47
  %56 = load ptr, ptr %8, align 8
  %57 = load i8, ptr %56, align 1
  %58 = sext i8 %57 to i32
  switch i32 %58, label %94 [
    i32 46, label %59
    i32 49, label %62
    i32 50, label %62
    i32 51, label %62
    i32 52, label %62
    i32 53, label %62
    i32 54, label %62
    i32 55, label %62
    i32 56, label %62
    i32 57, label %62
    i32 48, label %62
    i32 0, label %95
  ]

59:                                               ; preds = %55
  store i64 0, ptr %12, align 8
  %60 = load ptr, ptr %9, align 8
  %61 = getelementptr i32, ptr %60, i32 1
  store ptr %61, ptr %9, align 8
  br label %96

62:                                               ; preds = %55, %55, %55, %55, %55, %55, %55, %55, %55, %55
  %63 = load i64, ptr %12, align 8
  %64 = mul i64 %63, 10
  store i64 %64, ptr %12, align 8
  %65 = load ptr, ptr %8, align 8
  %66 = load i8, ptr %65, align 1
  %67 = sext i8 %66 to i32
  %68 = sub i32 %67, 48
  %69 = sext i32 %68 to i64
  %70 = load i64, ptr %12, align 8
  %71 = add i64 %70, %69
  store i64 %71, ptr %12, align 8
  %72 = load ptr, ptr %9, align 8
  %73 = load ptr, ptr %10, align 8
  %74 = icmp uge ptr %72, %73
  br i1 %74, label %78, label %75

75:                                               ; preds = %62
  %76 = load i64, ptr %12, align 8
  %77 = icmp ugt i64 %76, 4294967295
  br i1 %77, label %78, label %83

78:                                               ; preds = %75, %62
  %79 = load ptr, ptr %5, align 8
  %80 = load ptr, ptr %7, align 8
  %81 = load ptr, ptr %80, align 8
  call void @wmem_free(ptr noundef %79, ptr noundef %81)
  %82 = load ptr, ptr %7, align 8
  store ptr null, ptr %82, align 8
  store i32 0, ptr %4, align 4
  store i32 1, ptr %13, align 4
  br label %103

83:                                               ; preds = %75
  %84 = load ptr, ptr %9, align 8
  %85 = load i32, ptr %84, align 4
  %86 = mul i32 %85, 10
  store i32 %86, ptr %84, align 4
  %87 = load ptr, ptr %8, align 8
  %88 = load i8, ptr %87, align 1
  %89 = sext i8 %88 to i32
  %90 = sub i32 %89, 48
  %91 = load ptr, ptr %9, align 8
  %92 = load i32, ptr %91, align 4
  %93 = add i32 %92, %90
  store i32 %93, ptr %91, align 4
  br label %96

94:                                               ; preds = %55
  store i32 0, ptr %4, align 4
  store i32 1, ptr %13, align 4
  br label %103

95:                                               ; preds = %55
  br label %96

96:                                               ; preds = %95, %83, %59
  %97 = load ptr, ptr %8, align 8
  %98 = getelementptr i8, ptr %97, i32 1
  store ptr %98, ptr %8, align 8
  %99 = load i8, ptr %97, align 1
  %100 = icmp ne i8 %99, 0
  br i1 %100, label %55, label %101, !llvm.loop !8

101:                                              ; preds = %96
  %102 = load i32, ptr %11, align 4
  store i32 %102, ptr %4, align 4
  store i32 1, ptr %13, align 4
  br label %103

103:                                              ; preds = %101, %94, %78, %31
  call void @llvm.lifetime.end.p0(i64 8, ptr %12) #6
  call void @llvm.lifetime.end.p0(i64 4, ptr %11) #6
  call void @llvm.lifetime.end.p0(i64 8, ptr %10) #6
  call void @llvm.lifetime.end.p0(i64 8, ptr %9) #6
  call void @llvm.lifetime.end.p0(i64 8, ptr %8) #6
  %104 = load i32, ptr %4, align 4
  ret i32 %104
}