; Function Attrs: null_pointer_is_valid sspstrong uwtable
define i32 @oid_string2subid(ptr noundef %0, ptr noundef %1, ptr noundef captures(none) %2) local_unnamed_addr #0 {
  %4 = load i32, ptr @debuglevel, align 4
  %5 = icmp sgt i32 %4, 7
  br i1 %5, label %6, label %11

6:                                                ; preds = %3
  %7 = tail call i32 (i32, ptr, ...) @__printf_chk(i32 noundef 2, ptr noundef nonnull @.str.29, ptr noundef %1)
  %8 = tail call i32 (i32, ptr, ...) @__printf_chk(i32 noundef 2, ptr noundef nonnull @.str.2)
  %9 = load ptr, ptr @stdout, align 8
  %10 = tail call i32 @fflush(ptr noundef %9)
  %.pre.pre = load i32, ptr @debuglevel, align 4
  br label %11

11:                                               ; preds = %6, %3
  %.pre = phi i32 [ %.pre.pre, %6 ], [ %4, %3 ]
  %.not.i = icmp eq ptr %1, null
  br i1 %.not.i, label %check_num_oid.exit, label %.preheader.i

.preheader.i:                                     ; preds = %11
  %12 = icmp sgt i32 %.pre, 8
  br i1 %12, label %.preheader.split.i, label %.preheader.split.us.i

.preheader.split.us.i:                            ; preds = %.preheader.i, %17
  %.011.us.i = phi ptr [ %18, %17 ], [ %1, %.preheader.i ]
  %.010.us.i = phi i8 [ %13, %17 ], [ 46, %.preheader.i ]
  %.0.us.i = phi i32 [ %.1.us.i, %17 ], [ 0, %.preheader.i ]
  %13 = load i8, ptr %.011.us.i, align 1
  switch i8 %13, label %check_num_oid.exit [
    i8 46, label %14
    i8 0, label %14
    i8 49, label %17
    i8 50, label %17
    i8 51, label %17
    i8 52, label %17
    i8 53, label %17
    i8 54, label %17
    i8 55, label %17
    i8 56, label %17
    i8 57, label %17
    i8 48, label %17
  ]

14:                                               ; preds = %.preheader.split.us.i, %.preheader.split.us.i
  %15 = add i32 %.0.us.i, 1
  %16 = icmp eq i8 %.010.us.i, 46
  br i1 %16, label %check_num_oid.exit, label %17

17:                                               ; preds = %14, %.preheader.split.us.i, %.preheader.split.us.i, %.preheader.split.us.i, %.preheader.split.us.i, %.preheader.split.us.i, %.preheader.split.us.i, %.preheader.split.us.i, %.preheader.split.us.i, %.preheader.split.us.i, %.preheader.split.us.i
  %.1.us.i = phi i32 [ %.0.us.i, %.preheader.split.us.i ], [ %.0.us.i, %.preheader.split.us.i ], [ %.0.us.i, %.preheader.split.us.i ], [ %.0.us.i, %.preheader.split.us.i ], [ %.0.us.i, %.preheader.split.us.i ], [ %.0.us.i, %.preheader.split.us.i ], [ %.0.us.i, %.preheader.split.us.i ], [ %.0.us.i, %.preheader.split.us.i ], [ %.0.us.i, %.preheader.split.us.i ], [ %.0.us.i, %.preheader.split.us.i ], [ %15, %14 ]
  %18 = getelementptr i8, ptr %.011.us.i, i64 1
  %.not15.us.i = icmp eq i8 %13, 0
  br i1 %.not15.us.i, label %check_num_oid.exit, label %.preheader.split.us.i, !llvm.loop !9

.preheader.split.i:                               ; preds = %.preheader.i, %34
  %19 = phi i32 [ %29, %34 ], [ %.pre, %.preheader.i ]
  %.011.i = phi ptr [ %35, %34 ], [ %1, %.preheader.i ]
  %.010.i = phi i8 [ %30, %34 ], [ 46, %.preheader.i ]
  %.0.i = phi i32 [ %.1.i, %34 ], [ 0, %.preheader.i ]
  %20 = icmp sgt i32 %19, 8
  br i1 %20, label %21, label %28

21:                                               ; preds = %.preheader.split.i
  %22 = load i8, ptr %.011.i, align 1
  %23 = sext i8 %22 to i32
  %24 = tail call i32 (i32, ptr, ...) @__printf_chk(i32 noundef 2, ptr noundef nonnull @.str.30, i32 noundef %23, i32 noundef %.0.i)
  %25 = tail call i32 (i32, ptr, ...) @__printf_chk(i32 noundef 2, ptr noundef nonnull @.str.2)
  %26 = load ptr, ptr @stdout, align 8
  %27 = tail call i32 @fflush(ptr noundef %26)
  %.pre.i = load i32, ptr @debuglevel, align 4
  br label %28

28:                                               ; preds = %21, %.preheader.split.i
  %29 = phi i32 [ %.pre.i, %21 ], [ %19, %.preheader.split.i ]
  %30 = load i8, ptr %.011.i, align 1
  switch i8 %30, label %check_num_oid.exit [
    i8 46, label %31
    i8 0, label %31
    i8 49, label %34
    i8 50, label %34
    i8 51, label %34
    i8 52, label %34
    i8 53, label %34
    i8 54, label %34
    i8 55, label %34
    i8 56, label %34
    i8 57, label %34
    i8 48, label %34
  ]

31:                                               ; preds = %28, %28
  %32 = add i32 %.0.i, 1
  %33 = icmp eq i8 %.010.i, 46
  br i1 %33, label %check_num_oid.exit, label %34

34:                                               ; preds = %31, %28, %28, %28, %28, %28, %28, %28, %28, %28, %28
  %.1.i = phi i32 [ %.0.i, %28 ], [ %.0.i, %28 ], [ %.0.i, %28 ], [ %.0.i, %28 ], [ %.0.i, %28 ], [ %.0.i, %28 ], [ %.0.i, %28 ], [ %.0.i, %28 ], [ %.0.i, %28 ], [ %.0.i, %28 ], [ %32, %31 ]
  %35 = getelementptr i8, ptr %.011.i, i64 1
  %.not15.i = icmp eq i8 %30, 0
  br i1 %.not15.i, label %check_num_oid.exit, label %.preheader.split.i, !llvm.loop !10

check_num_oid.exit:                               ; preds = %.preheader.split.us.i, %14, %17, %28, %31, %34, %11
  %36 = phi i32 [ %.pre, %11 ], [ %29, %34 ], [ %29, %31 ], [ %29, %28 ], [ %.pre, %17 ], [ %.pre, %14 ], [ %.pre, %.preheader.split.us.i ]
  %.012.i = phi i32 [ 0, %11 ], [ 0, %28 ], [ 0, %31 ], [ %.1.i, %34 ], [ 0, %.preheader.split.us.i ], [ 0, %14 ], [ %.1.us.i, %17 ]
  %37 = icmp sgt i32 %36, 5
  br i1 %37, label %38, label %43

38:                                               ; preds = %check_num_oid.exit
  %39 = tail call i32 (i32, ptr, ...) @__printf_chk(i32 noundef 2, ptr noundef nonnull @.str.19, ptr noundef %1)
  %40 = tail call i32 (i32, ptr, ...) @__printf_chk(i32 noundef 2, ptr noundef nonnull @.str.2)
  %41 = load ptr, ptr @stdout, align 8
  %42 = tail call i32 @fflush(ptr noundef %41)
  br label %43

43:                                               ; preds = %38, %check_num_oid.exit
  %.not = icmp eq i32 %.012.i, 0
  br i1 %.not, label %44, label %45

44:                                               ; preds = %43
  store ptr null, ptr %2, align 8
  br label %.thread

45:                                               ; preds = %43
  %46 = zext i32 %.012.i to i64
  %47 = shl nuw nsw i64 %46, 2
  %48 = tail call noalias ptr @wmem_alloc0(ptr noundef %0, i64 noundef %47) #8
  store ptr %48, ptr %2, align 8
  %49 = getelementptr i32, ptr %48, i64 %46
  br label %.outer

.outer:                                           ; preds = %70, %45
  %.031.ph = phi ptr [ %71, %70 ], [ %48, %45 ]
  %.030.ph = phi ptr [ %72, %70 ], [ %1, %45 ]
  %50 = icmp uge ptr %.031.ph, %49
  br label %51

51:                                               ; preds = %.outer, %61
  %.030 = phi ptr [ %69, %61 ], [ %.030.ph, %.outer ]
  %.0 = phi i64 [ %57, %61 ], [ 0, %.outer ]
  %52 = load i8, ptr %.030, align 1
  switch i8 %52, label %.thread.loopexit55 [
    i8 46, label %70
    i8 49, label %53
    i8 50, label %53
    i8 51, label %53
    i8 52, label %53
    i8 53, label %53
    i8 54, label %53
    i8 55, label %53
    i8 56, label %53
    i8 57, label %53
    i8 48, label %53
    i8 0, label %.thread
  ]

53:                                               ; preds = %51, %51, %51, %51, %51, %51, %51, %51, %51, %51
  %54 = mul i64 %.0, 10
  %55 = zext nneg i8 %52 to i64
  %56 = add i64 %54, -48
  %57 = add i64 %56, %55
  %58 = icmp ugt i64 %57, 4294967295
  %or.cond = select i1 %50, i1 true, i1 %58
  br i1 %or.cond, label %59, label %61

59:                                               ; preds = %53
  %60 = load ptr, ptr %2, align 8
  tail call void @wmem_free(ptr noundef %0, ptr noundef %60)
  store ptr null, ptr %2, align 8
  br label %.thread

61:                                               ; preds = %53
  %62 = load i32, ptr %.031.ph, align 4
  %63 = mul i32 %62, 10
  store i32 %63, ptr %.031.ph, align 4
  %64 = load i8, ptr %.030, align 1
  %65 = sext i8 %64 to i32
  %66 = add i32 %63, -48
  %67 = add i32 %66, %65
  store i32 %67, ptr %.031.ph, align 4
  %.pr = load i8, ptr %.030, align 1
  %68 = icmp eq i8 %.pr, 0
  %69 = getelementptr i8, ptr %.030, i64 1
  br i1 %68, label %.thread, label %51, !llvm.loop !12

70:                                               ; preds = %51
  %71 = getelementptr i8, ptr %.031.ph, i64 4
  %72 = getelementptr i8, ptr %.030, i64 1
  br label %.outer, !llvm.loop !12

.thread.loopexit55:                               ; preds = %51
  br label %.thread

.thread:                                          ; preds = %51, %61, %.thread.loopexit55, %59, %44
  %.029 = phi i32 [ 0, %59 ], [ 0, %44 ], [ 0, %.thread.loopexit55 ], [ %.012.i, %61 ], [ %.012.i, %51 ]
  ret i32 %.029
}